; Function Attrs: nounwind uwtable
define dso_local range(i32 0, 2) i32 @quicklistBookmarkDelete(ptr noundef %0, ptr noundef readonly captures(none) %1) local_unnamed_addr #1 {
  %3 = getelementptr inbounds nuw i8, ptr %0, i64 40
  %4 = getelementptr inbounds nuw i8, ptr %0, i64 32
  %5 = load i64, ptr %4, align 8
  %6 = and i64 %5, 64424509440
  %.not12.i = icmp eq i64 %6, 0
  br i1 %.not12.i, label %_quicklistBookmarkFindByName.exit.thread, label %.lr.ph.preheader.i

.lr.ph.preheader.i:                               ; preds = %2
  %7 = lshr i64 %5, 32
  %wide.trip.count.i = and i64 %7, 15
  br label %.lr.ph.i

8:                                                ; preds = %.lr.ph.i
  %indvars.iv.next.i = add nuw nsw i64 %indvars.iv.i, 1
  %exitcond.not.i = icmp eq i64 %indvars.iv.next.i, %wide.trip.count.i
  br i1 %exitcond.not.i, label %_quicklistBookmarkFindByName.exit.thread, label %.lr.ph.i, !llvm.loop !58

.lr.ph.i:                                         ; preds = %8, %.lr.ph.preheader.i
  %indvars.iv.i = phi i64 [ 0, %.lr.ph.preheader.i ], [ %indvars.iv.next.i, %8 ]
  %9 = getelementptr inbounds nuw [0 x %struct.quicklistBookmark], ptr %3, i64 0, i64 %indvars.iv.i
  %10 = getelementptr inbounds nuw i8, ptr %9, i64 8
  %11 = load ptr, ptr %10, align 8, !tbaa !20
  %12 = tail call i32 @strcmp(ptr noundef nonnull dereferenceable(1) %11, ptr noundef nonnull readonly dereferenceable(1) %1) #26
  %.not.i = icmp eq i32 %12, 0
  br i1 %.not.i, label %_quicklistBookmarkFindByName.exit, label %8

_quicklistBookmarkFindByName.exit:                ; preds = %.lr.ph.i
  %13 = ptrtoint ptr %9 to i64
  %14 = ptrtoint ptr %3 to i64
  %.neg.i = sub i64 %14, %13
  tail call void @zfree(ptr noundef nonnull %11) #23
  %15 = load i64, ptr %4, align 8
  %16 = add i64 %15, 64424509440
  %17 = and i64 %16, 64424509440
  %18 = and i64 %15, -64424509441
  %19 = or disjoint i64 %17, %18
  store i64 %19, ptr %4, align 8
  %20 = getelementptr inbounds nuw i8, ptr %9, i64 16
  %.neg7.i = shl i64 %.neg.i, 28
  %sext.i = add i64 %17, %.neg7.i
  %21 = ashr exact i64 %sext.i, 28
  %22 = and i64 %21, -16
  tail call void @llvm.memmove.p0.p0.i64(ptr nonnull align 8 %9, ptr nonnull align 8 %20, i64 %22, i1 false)
  br label %_quicklistBookmarkFindByName.exit.thread

_quicklistBookmarkFindByName.exit.thread:         ; preds = %8, %2, %_quicklistBookmarkFindByName.exit
  %.0 = phi i32 [ 1, %_quicklistBookmarkFindByName.exit ], [ 0, %2 ], [ 0, %8 ]
  ret i32 %.0
}